target datalayout = "e-m:e-p270:32:32-p271:32:32-p272:64:64-i64:64-i128:128-f80:128-n8:16:32:64-S128"
target triple = "x86_64-pc-linux-gnu"

%struct.bio_st = type { ptr, ptr, ptr, ptr, ptr, i32, i32, i32, i32, i32, ptr, ptr, ptr, %struct.CRYPTO_REF_COUNT, i64, i64, %struct.crypto_ex_data_st }
%struct.CRYPTO_REF_COUNT = type { i32 }
%struct.crypto_ex_data_st = type { ptr, ptr }
%struct.bio_dgram_pair_st = type { ptr, %struct.ring_buf, i64, i64, i32, ptr, ptr, i8 }
%struct.ring_buf = type { ptr, i64, i64, [2 x i64] }
%struct.bio_msg_st = type { ptr, i64, ptr, ptr, i64 }

@.str.2 = private unnamed_addr constant [39 x i8] c"../openssl/crypto/bio/bss_dgram_pair.c\00", align 1
@__func__.dgram_pair_recvmmsg = private unnamed_addr constant [20 x i8] c"dgram_pair_recvmmsg\00", align 1

; Function Attrs: nounwind uwtable
define internal i32 @dgram_pair_recvmmsg(ptr noundef %0, ptr noundef %1, i64 noundef %2, i64 noundef %3, i64 noundef %4, ptr noundef %5) #0 {
  %7 = alloca i32, align 4
  %8 = alloca ptr, align 8
  %9 = alloca ptr, align 8
  %10 = alloca i64, align 8
  %11 = alloca i64, align 8
  %12 = alloca i64, align 8
  %13 = alloca ptr, align 8
  %14 = alloca i32, align 4
  %15 = alloca i64, align 8
  %16 = alloca ptr, align 8
  %17 = alloca i64, align 8
  %18 = alloca ptr, align 8
  %19 = alloca ptr, align 8
  %20 = alloca i32, align 4
  store ptr %0, ptr %8, align 8, !tbaa !12
  store ptr %1, ptr %9, align 8, !tbaa !33
  store i64 %2, ptr %10, align 8, !tbaa !8
  store i64 %3, ptr %11, align 8, !tbaa !8
  store i64 %4, ptr %12, align 8, !tbaa !8
  store ptr %5, ptr %13, align 8, !tbaa !35
  call void @llvm.lifetime.start.p0(i64 4, ptr %14) #8
  call void @llvm.lifetime.start.p0(i64 8, ptr %15) #8
  call void @llvm.lifetime.start.p0(i64 8, ptr %16) #8
  call void @llvm.lifetime.start.p0(i64 8, ptr %17) #8
  call void @llvm.lifetime.start.p0(i64 8, ptr %18) #8
  %21 = load ptr, ptr %8, align 8, !tbaa !12
  %22 = getelementptr inbounds nuw %struct.bio_st, ptr %21, i32 0, i32 10
  %23 = load ptr, ptr %22, align 8, !tbaa !16
  store ptr %23, ptr %18, align 8, !tbaa !23
  call void @llvm.lifetime.start.p0(i64 8, ptr %19) #8
  %24 = load i64, ptr %11, align 8, !tbaa !8
  %25 = icmp eq i64 %24, 0
  br i1 %25, label %26, label %28

26:                                               ; preds = %6
  %27 = load ptr, ptr %13, align 8, !tbaa !35
  store i64 0, ptr %27, align 8, !tbaa !8
  store i32 1, ptr %7, align 4
  store i32 1, ptr %20, align 4
  br label %112

28:                                               ; preds = %6
  %29 = load ptr, ptr %8, align 8, !tbaa !12
  %30 = getelementptr inbounds nuw %struct.bio_st, ptr %29, i32 0, i32 5
  %31 = load i32, ptr %30, align 8, !tbaa !45
  %32 = icmp ne i32 %31, 0
  br i1 %32, label %35, label %33

33:                                               ; preds = %28
  call void @ERR_new()
  call void @ERR_set_debug(ptr noundef @.str.2, i32 noundef 1068, ptr noundef @__func__.dgram_pair_recvmmsg)
  call void (i32, i32, ptr, ...) @ERR_set_error(i32 noundef 32, i32 noundef 124, ptr noundef null)
  %34 = load ptr, ptr %13, align 8, !tbaa !35
  store i64 0, ptr %34, align 8, !tbaa !8
  store i32 0, ptr %7, align 4
  store i32 1, ptr %20, align 4
  br label %112

35:                                               ; preds = %28
  %36 = load ptr, ptr %18, align 8, !tbaa !23
  %37 = getelementptr inbounds nuw %struct.bio_dgram_pair_st, ptr %36, i32 0, i32 0
  %38 = load ptr, ptr %37, align 8, !tbaa !29
  %39 = icmp ne ptr %38, null
  br i1 %39, label %40, label %46

40:                                               ; preds = %35
  %41 = load ptr, ptr %18, align 8, !tbaa !23
  %42 = getelementptr inbounds nuw %struct.bio_dgram_pair_st, ptr %41, i32 0, i32 0
  %43 = load ptr, ptr %42, align 8, !tbaa !29
  %44 = getelementptr inbounds nuw %struct.bio_st, ptr %43, i32 0, i32 10
  %45 = load ptr, ptr %44, align 8, !tbaa !16
  store ptr %45, ptr %19, align 8, !tbaa !23
  br label %48

46:                                               ; preds = %35
  %47 = load ptr, ptr %18, align 8, !tbaa !23
  store ptr %47, ptr %19, align 8, !tbaa !23
  br label %48

48:                                               ; preds = %46, %40
  %49 = load ptr, ptr %19, align 8, !tbaa !23
  %50 = getelementptr inbounds nuw %struct.bio_dgram_pair_st, ptr %49, i32 0, i32 6
  %51 = load ptr, ptr %50, align 8, !tbaa !25
  %52 = call i32 @CRYPTO_THREAD_write_lock(ptr noundef %51)
  %53 = icmp eq i32 %52, 0
  br i1 %53, label %54, label %56

54:                                               ; preds = %48
  call void @ERR_new()
  call void @ERR_set_debug(ptr noundef @.str.2, i32 noundef 1079, ptr noundef @__func__.dgram_pair_recvmmsg)
  call void (i32, i32, ptr, ...) @ERR_set_error(i32 noundef 32, i32 noundef 786704, ptr noundef null)
  %55 = load ptr, ptr %13, align 8, !tbaa !35
  store i64 0, ptr %55, align 8, !tbaa !8
  store i32 0, ptr %7, align 4
  store i32 1, ptr %20, align 4
  br label %112

56:                                               ; preds = %48
  store i64 0, ptr %17, align 8, !tbaa !8
  br label %57

57:                                               ; preds = %100, %56
  %58 = load i64, ptr %17, align 8, !tbaa !8
  %59 = load i64, ptr %11, align 8, !tbaa !8
  %60 = icmp ult i64 %58, %59
  br i1 %60, label %61, label %103

61:                                               ; preds = %57
  %62 = load ptr, ptr %9, align 8, !tbaa !33
  %63 = load i64, ptr %17, align 8, !tbaa !8
  %64 = load i64, ptr %10, align 8, !tbaa !8
  %65 = mul i64 %63, %64
  %66 = getelementptr inbounds nuw i8, ptr %62, i64 %65
  store ptr %66, ptr %16, align 8, !tbaa !33
  %67 = load ptr, ptr %8, align 8, !tbaa !12
  %68 = load ptr, ptr %16, align 8, !tbaa !33
  %69 = getelementptr inbounds nuw %struct.bio_msg_st, ptr %68, i32 0, i32 0
  %70 = load ptr, ptr %69, align 8, !tbaa !37
  %71 = load ptr, ptr %16, align 8, !tbaa !33
  %72 = getelementptr inbounds nuw %struct.bio_msg_st, ptr %71, i32 0, i32 1
  %73 = load i64, ptr %72, align 8, !tbaa !39
  %74 = load ptr, ptr %16, align 8, !tbaa !33
  %75 = getelementptr inbounds nuw %struct.bio_msg_st, ptr %74, i32 0, i32 3
  %76 = load ptr, ptr %75, align 8, !tbaa !40
  %77 = load ptr, ptr %16, align 8, !tbaa !33
  %78 = getelementptr inbounds nuw %struct.bio_msg_st, ptr %77, i32 0, i32 2
  %79 = load ptr, ptr %78, align 8, !tbaa !41
  %80 = call i64 @dgram_pair_read_actual(ptr noundef %67, ptr noundef %70, i64 noundef %73, ptr noundef %76, ptr noundef %79, i32 noundef 1)
  store i64 %80, ptr %15, align 8, !tbaa !8
  %81 = load i64, ptr %15, align 8, !tbaa !8
  %82 = icmp slt i64 %81, 0
  br i1 %82, label %83, label %94

83:                                               ; preds = %61
  %84 = load i64, ptr %17, align 8, !tbaa !8
  %85 = load ptr, ptr %13, align 8, !tbaa !35
  store i64 %84, ptr %85, align 8, !tbaa !8
  %86 = load i64, ptr %17, align 8, !tbaa !8
  %87 = icmp ugt i64 %86, 0
  br i1 %87, label %88, label %89

88:                                               ; preds = %83
  store i32 1, ptr %14, align 4, !tbaa !10
  br label %93

89:                                               ; preds = %83
  call void @ERR_new()
  call void @ERR_set_debug(ptr noundef @.str.2, i32 noundef 1093, ptr noundef @__func__.dgram_pair_recvmmsg)
  %90 = load i64, ptr %15, align 8, !tbaa !8
  %91 = sub nsw i64 0, %90
  %92 = trunc i64 %91 to i32
  call void (i32, i32, ptr, ...) @ERR_set_error(i32 noundef 32, i32 noundef %92, ptr noundef null)
  store i32 0, ptr %14, align 4, !tbaa !10
  br label %93

93:                                               ; preds = %89, %88
  br label %106

94:                                               ; preds = %61
  %95 = load i64, ptr %15, align 8, !tbaa !8
  %96 = load ptr, ptr %16, align 8, !tbaa !33
  %97 = getelementptr inbounds nuw %struct.bio_msg_st, ptr %96, i32 0, i32 1
  store i64 %95, ptr %97, align 8, !tbaa !39
  %98 = load ptr, ptr %16, align 8, !tbaa !33
  %99 = getelementptr inbounds nuw %struct.bio_msg_st, ptr %98, i32 0, i32 4
  store i64 0, ptr %99, align 8, !tbaa !42
  br label %100

100:                                              ; preds = %94
  %101 = load i64, ptr %17, align 8, !tbaa !8
  %102 = add i64 %101, 1
  store i64 %102, ptr %17, align 8, !tbaa !8
  br label %57, !llvm.loop !46

103:                                              ; preds = %57
  %104 = load i64, ptr %17, align 8, !tbaa !8
  %105 = load ptr, ptr %13, align 8, !tbaa !35
  store i64 %104, ptr %105, align 8, !tbaa !8
  store i32 1, ptr %14, align 4, !tbaa !10
  br label %106

106:                                              ; preds = %103, %93
  %107 = load ptr, ptr %19, align 8, !tbaa !23
  %108 = getelementptr inbounds nuw %struct.bio_dgram_pair_st, ptr %107, i32 0, i32 6
  %109 = load ptr, ptr %108, align 8, !tbaa !25
  %110 = call i32 @CRYPTO_THREAD_unlock(ptr noundef %109)
  %111 = load i32, ptr %14, align 4, !tbaa !10
  store i32 %111, ptr %7, align 4
  store i32 1, ptr %20, align 4
  br label %112

112:                                              ; preds = %106, %54, %33, %26
  call void @llvm.lifetime.end.p0(i64 8, ptr %19) #8
  call void @llvm.lifetime.end.p0(i64 8, ptr %18) #8
  call void @llvm.lifetime.end.p0(i64 8, ptr %17) #8
  call void @llvm.lifetime.end.p0(i64 8, ptr %16) #8
  call void @llvm.lifetime.end.p0(i64 8, ptr %15) #8
  call void @llvm.lifetime.end.p0(i64 4, ptr %14) #8
  %113 = load i32, ptr %7, align 4
  ret i32 %113
}