; Function Attrs: nounwind uwtable
define internal range(i32 0, 2) i32 @dgram_pair_recvmmsg(ptr noundef %0, ptr noundef captures(none) %1, i64 noundef %2, i64 noundef %3, i64 %4, ptr noundef writeonly captures(none) %5) #1 {
  %7 = getelementptr inbounds nuw i8, ptr %0, i64 64
  %8 = load ptr, ptr %7, align 8, !tbaa !8
  %9 = icmp eq i64 %3, 0
  br i1 %9, label %10, label %11

10:                                               ; preds = %6
  store i64 0, ptr %5, align 8, !tbaa !35
  br label %48

11:                                               ; preds = %6
  %12 = getelementptr inbounds nuw i8, ptr %0, i64 40
  %13 = load i32, ptr %12, align 8, !tbaa !30
  %.not = icmp eq i32 %13, 0
  br i1 %.not, label %14, label %15

14:                                               ; preds = %11
  tail call void @ERR_new() #7
  tail call void @ERR_set_debug(ptr noundef nonnull @.str.2, i32 noundef 1068, ptr noundef nonnull @__func__.dgram_pair_recvmmsg) #7
  tail call void (i32, i32, ptr, ...) @ERR_set_error(i32 noundef 32, i32 noundef 124, ptr noundef null) #7
  store i64 0, ptr %5, align 8, !tbaa !35
  br label %48

15:                                               ; preds = %11
  %16 = load ptr, ptr %8, align 8, !tbaa !22
  %.not39 = icmp eq ptr %16, null
  br i1 %.not39, label %20, label %17

17:                                               ; preds = %15
  %18 = getelementptr inbounds nuw i8, ptr %16, i64 64
  %19 = load ptr, ptr %18, align 8, !tbaa !8
  br label %20

20:                                               ; preds = %15, %17
  %.0 = phi ptr [ %19, %17 ], [ %8, %15 ]
  %21 = getelementptr inbounds nuw i8, ptr %.0, i64 80
  %22 = load ptr, ptr %21, align 8, !tbaa !18
  %23 = tail call i32 @CRYPTO_THREAD_write_lock(ptr noundef %22) #7
  %24 = icmp eq i32 %23, 0
  br i1 %24, label %25, label %.preheader

25:                                               ; preds = %20
  tail call void @ERR_new() #7
  tail call void @ERR_set_debug(ptr noundef nonnull @.str.2, i32 noundef 1079, ptr noundef nonnull @__func__.dgram_pair_recvmmsg) #7
  tail call void (i32, i32, ptr, ...) @ERR_set_error(i32 noundef 32, i32 noundef 786704, ptr noundef null) #7
  store i64 0, ptr %5, align 8, !tbaa !35
  br label %48

.preheader:                                       ; preds = %20, %41
  %.03442 = phi i64 [ %43, %41 ], [ 0, %20 ]
  %26 = mul i64 %.03442, %2
  %27 = getelementptr inbounds nuw i8, ptr %1, i64 %26
  %28 = load ptr, ptr %27, align 8, !tbaa !36
  %29 = getelementptr inbounds nuw i8, ptr %27, i64 8
  %30 = load i64, ptr %29, align 8, !tbaa !38
  %31 = getelementptr inbounds nuw i8, ptr %27, i64 24
  %32 = load ptr, ptr %31, align 8, !tbaa !39
  %33 = getelementptr inbounds nuw i8, ptr %27, i64 16
  %34 = load ptr, ptr %33, align 8, !tbaa !40
  %35 = tail call fastcc i64 @dgram_pair_read_actual(ptr noundef %0, ptr noundef %28, i64 noundef %30, ptr noundef %32, ptr noundef %34, i32 noundef 1)
  %36 = icmp slt i64 %35, 0
  br i1 %36, label %37, label %41

37:                                               ; preds = %.preheader
  store i64 %.03442, ptr %5, align 8, !tbaa !35
  %.not40 = icmp eq i64 %.03442, 0
  br i1 %.not40, label %38, label %45

38:                                               ; preds = %37
  tail call void @ERR_new() #7
  tail call void @ERR_set_debug(ptr noundef nonnull @.str.2, i32 noundef 1093, ptr noundef nonnull @__func__.dgram_pair_recvmmsg) #7
  %39 = trunc i64 %35 to i32
  %40 = sub i32 0, %39
  tail call void (i32, i32, ptr, ...) @ERR_set_error(i32 noundef 32, i32 noundef %40, ptr noundef null) #7
  br label %45

41:                                               ; preds = %.preheader
  store i64 %35, ptr %29, align 8, !tbaa !38
  %42 = getelementptr inbounds nuw i8, ptr %27, i64 32
  store i64 0, ptr %42, align 8, !tbaa !41
  %43 = add nuw i64 %.03442, 1
  %exitcond.not = icmp eq i64 %43, %3
  br i1 %exitcond.not, label %44, label %.preheader, !llvm.loop !44

44:                                               ; preds = %41
  store i64 %3, ptr %5, align 8, !tbaa !35
  br label %45

45:                                               ; preds = %37, %38, %44
  %.035 = phi i32 [ 0, %38 ], [ 1, %44 ], [ 1, %37 ]
  %46 = load ptr, ptr %21, align 8, !tbaa !18
  %47 = tail call i32 @CRYPTO_THREAD_unlock(ptr noundef %46) #7
  br label %48

48:                                               ; preds = %45, %25, %14, %10
  %.033 = phi i32 [ 1, %10 ], [ 0, %25 ], [ %.035, %45 ], [ 0, %14 ]
  ret i32 %.033
}